target datalayout = "e-m:e-p270:32:32-p271:32:32-p272:64:64-i64:64-i128:128-f80:128-n8:16:32:64-S128"
target triple = "x86_64-pc-linux-gnu"

%struct.ARKodeMemRec = type { ptr, double, ptr, i32, i32, double, double, ptr, i32, double, ptr, i32, i32, ptr, ptr, i32, ptr, ptr, i32, ptr, ptr, ptr, ptr, ptr, ptr, ptr, ptr, ptr, ptr, ptr, ptr, ptr, ptr, ptr, i32, ptr, ptr, i32, ptr, i32, ptr, ptr, ptr, ptr, ptr, ptr, ptr, ptr, ptr, ptr, ptr, ptr, ptr, ptr, ptr, ptr, ptr, ptr, ptr, ptr, ptr, ptr, ptr, ptr, ptr, ptr, i32, ptr, ptr, ptr, ptr, ptr, ptr, ptr, i32, ptr, ptr, ptr, i32, ptr, ptr, ptr, ptr, ptr, ptr, ptr, i32, i32, i32, i32, double, double, double, double, double, double, double, double, double, double, i32, ptr, i64, i32, i32, i32, i32, i64, i64, i32, i64, i64, i64, i64, i64, i64, i64, double, double, double, double, double, i32, double, double, i32, i32, i32, i32, i32, i32, i32, i32, ptr, i32, ptr, ptr, ptr, ptr, i32, i32, i32 }
%struct.ARKBandPrecDataRec = type { i64, i64, i64, ptr, ptr, ptr, ptr, ptr, i64, ptr }
%struct.ARKLsMemRec = type { i32, i32, i32, ptr, ptr, i32, i32, double, double, ptr, ptr, ptr, ptr, ptr, ptr, ptr, i64, double, i64, i64, i64, i64, i64, i64, i64, i64, i64, double, ptr, ptr, ptr, ptr, i32, ptr, ptr, ptr, ptr, i32, ptr, ptr, i32 }

; Function Attrs: nounwind uwtable
define internal i32 @ARKBandPrecFree(ptr noundef %0) #0 {
  %2 = alloca i32, align 4
  %3 = alloca ptr, align 8
  %4 = alloca ptr, align 8
  %5 = alloca ptr, align 8
  %6 = alloca ptr, align 8
  %7 = alloca i32, align 4
  store ptr %0, ptr %3, align 8, !tbaa !11
  call void @llvm.lifetime.start.p0(i64 8, ptr %4) #6
  call void @llvm.lifetime.start.p0(i64 8, ptr %5) #6
  call void @llvm.lifetime.start.p0(i64 8, ptr %6) #6
  %8 = load ptr, ptr %3, align 8, !tbaa !11
  %9 = icmp eq ptr %8, null
  br i1 %9, label %10, label %11

10:                                               ; preds = %1
  store i32 0, ptr %2, align 4
  store i32 1, ptr %7, align 4
  br label %48

11:                                               ; preds = %1
  %12 = load ptr, ptr %3, align 8, !tbaa !11
  %13 = getelementptr inbounds nuw %struct.ARKodeMemRec, ptr %12, i32 0, i32 42
  %14 = load ptr, ptr %13, align 8, !tbaa !48
  %15 = load ptr, ptr %3, align 8, !tbaa !11
  %16 = call ptr %14(ptr noundef %15)
  store ptr %16, ptr %5, align 8, !tbaa !3
  %17 = load ptr, ptr %5, align 8, !tbaa !3
  %18 = icmp eq ptr %17, null
  br i1 %18, label %19, label %20

19:                                               ; preds = %11
  store i32 0, ptr %2, align 4
  store i32 1, ptr %7, align 4
  br label %48

20:                                               ; preds = %11
  %21 = load ptr, ptr %5, align 8, !tbaa !3
  store ptr %21, ptr %4, align 8, !tbaa !43
  %22 = load ptr, ptr %4, align 8, !tbaa !43
  %23 = getelementptr inbounds nuw %struct.ARKLsMemRec, ptr %22, i32 0, i32 31
  %24 = load ptr, ptr %23, align 8, !tbaa !47
  %25 = icmp eq ptr %24, null
  br i1 %25, label %26, label %27

26:                                               ; preds = %20
  store i32 0, ptr %2, align 4
  store i32 1, ptr %7, align 4
  br label %48

27:                                               ; preds = %20
  %28 = load ptr, ptr %4, align 8, !tbaa !43
  %29 = getelementptr inbounds nuw %struct.ARKLsMemRec, ptr %28, i32 0, i32 31
  %30 = load ptr, ptr %29, align 8, !tbaa !47
  store ptr %30, ptr %6, align 8, !tbaa !27
  %31 = load ptr, ptr %6, align 8, !tbaa !27
  %32 = getelementptr inbounds nuw %struct.ARKBandPrecDataRec, ptr %31, i32 0, i32 5
  %33 = load ptr, ptr %32, align 8, !tbaa !40
  %34 = call i32 @SUNLinSolFree(ptr noundef %33)
  %35 = load ptr, ptr %6, align 8, !tbaa !27
  %36 = getelementptr inbounds nuw %struct.ARKBandPrecDataRec, ptr %35, i32 0, i32 4
  %37 = load ptr, ptr %36, align 8, !tbaa !39
  call void @SUNMatDestroy(ptr noundef %37)
  %38 = load ptr, ptr %6, align 8, !tbaa !27
  %39 = getelementptr inbounds nuw %struct.ARKBandPrecDataRec, ptr %38, i32 0, i32 3
  %40 = load ptr, ptr %39, align 8, !tbaa !37
  call void @SUNMatDestroy(ptr noundef %40)
  %41 = load ptr, ptr %3, align 8, !tbaa !11
  %42 = load ptr, ptr %6, align 8, !tbaa !27
  %43 = getelementptr inbounds nuw %struct.ARKBandPrecDataRec, ptr %42, i32 0, i32 6
  call void @arkFreeVec(ptr noundef %41, ptr noundef %43)
  %44 = load ptr, ptr %3, align 8, !tbaa !11
  %45 = load ptr, ptr %6, align 8, !tbaa !27
  %46 = getelementptr inbounds nuw %struct.ARKBandPrecDataRec, ptr %45, i32 0, i32 7
  call void @arkFreeVec(ptr noundef %44, ptr noundef %46)
  %47 = load ptr, ptr %6, align 8, !tbaa !27
  call void @free(ptr noundef %47) #6
  store ptr null, ptr %6, align 8, !tbaa !27
  store i32 0, ptr %2, align 4
  store i32 1, ptr %7, align 4
  br label %48

48:                                               ; preds = %27, %26, %19, %10
  call void @llvm.lifetime.end.p0(i64 8, ptr %6) #6
  call void @llvm.lifetime.end.p0(i64 8, ptr %5) #6
  call void @llvm.lifetime.end.p0(i64 8, ptr %4) #6
  %49 = load i32, ptr %2, align 4
  ret i32 %49
}