; Function Attrs: nounwind uwtable
define internal noundef i32 @ARKBandPrecFree(ptr noundef %0) #0 {
  %2 = icmp eq ptr %0, null
  br i1 %2, label %22, label %3

3:                                                ; preds = %1
  %4 = getelementptr inbounds nuw i8, ptr %0, i64 320
  %5 = load ptr, ptr %4, align 8, !tbaa !43
  %6 = tail call ptr %5(ptr noundef nonnull %0) #8
  %7 = icmp eq ptr %6, null
  br i1 %7, label %22, label %8

8:                                                ; preds = %3
  %9 = getelementptr inbounds nuw i8, ptr %6, i64 232
  %10 = load ptr, ptr %9, align 8, !tbaa !42
  %11 = icmp eq ptr %10, null
  br i1 %11, label %22, label %12

12:                                               ; preds = %8
  %13 = getelementptr inbounds nuw i8, ptr %10, i64 40
  %14 = load ptr, ptr %13, align 8, !tbaa !35
  %15 = tail call i32 @SUNLinSolFree(ptr noundef %14) #8
  %16 = getelementptr inbounds nuw i8, ptr %10, i64 32
  %17 = load ptr, ptr %16, align 8, !tbaa !34
  tail call void @SUNMatDestroy(ptr noundef %17) #8
  %18 = getelementptr inbounds nuw i8, ptr %10, i64 24
  %19 = load ptr, ptr %18, align 8, !tbaa !33
  tail call void @SUNMatDestroy(ptr noundef %19) #8
  %20 = getelementptr inbounds nuw i8, ptr %10, i64 48
  tail call void @arkFreeVec(ptr noundef nonnull %0, ptr noundef nonnull %20) #8
  %21 = getelementptr inbounds nuw i8, ptr %10, i64 56
  tail call void @arkFreeVec(ptr noundef nonnull %0, ptr noundef nonnull %21) #8
  tail call void @free(ptr noundef nonnull %10) #8
  br label %22

22:                                               ; preds = %8, %3, %1, %12
  ret i32 0
}